target datalayout = "e-m:e-p270:32:32-p271:32:32-p272:64:64-i64:64-i128:128-f80:128-n8:16:32:64-S128"
target triple = "x86_64-pc-linux-gnu"

%struct.rb_data_type_struct = type { ptr, %struct.anon, ptr, ptr, i64 }
%struct.anon = type { ptr, ptr, ptr, ptr, [1 x ptr] }

@ossl_x509req_type = internal constant %struct.rb_data_type_struct { ptr @.str.21, %struct.anon { ptr null, ptr @ossl_x509req_free, ptr null, ptr null, [1 x ptr] zeroinitializer }, ptr null, ptr null, i64 33 }, align 8
@rb_eRuntimeError = external global i64, align 8
@.str = private unnamed_addr constant [24 x i8] c"Req wasn't initialized!\00", align 1
@eX509ReqError = internal global i64 0, align 8

; Function Attrs: inlinehint nounwind sspstrong willreturn memory(none) uwtable
define internal zeroext i1 @RB_NIL_P(i64 noundef %0) #9 {
  %2 = alloca i64, align 8
  store i64 %0, ptr %2, align 8, !tbaa !6
  %3 = load i64, ptr %2, align 8, !tbaa !6
  %4 = icmp eq i64 %3, 4
  ret i1 %4
}

; Function Attrs: nounwind sspstrong uwtable
define internal i64 @ossl_x509req_sign(i64 noundef %0, i64 noundef %1, i64 noundef %2) #0 {
  %4 = alloca i64, align 8
  %5 = alloca i64, align 8
  %6 = alloca i64, align 8
  %7 = alloca ptr, align 8
  %8 = alloca ptr, align 8
  %9 = alloca ptr, align 8
  store i64 %0, ptr %4, align 8, !tbaa !6
  store i64 %1, ptr %5, align 8, !tbaa !6
  store i64 %2, ptr %6, align 8, !tbaa !6
  call void @llvm.lifetime.start.p0(i64 8, ptr %7) #15
  call void @llvm.lifetime.start.p0(i64 8, ptr %8) #15
  call void @llvm.lifetime.start.p0(i64 8, ptr %9) #15
  br label %10

10:                                               ; preds = %3
  %11 = load i64, ptr %4, align 8, !tbaa !6
  %12 = call ptr @rb_check_typeddata(i64 noundef %11, ptr noundef @ossl_x509req_type)
  store ptr %12, ptr %7, align 8, !tbaa !10
  %13 = load ptr, ptr %7, align 8, !tbaa !10
  %14 = icmp ne ptr %13, null
  br i1 %14, label %17, label %15

15:                                               ; preds = %10
  %16 = load i64, ptr @rb_eRuntimeError, align 8, !tbaa !6
  call void (i64, ptr, ...) @ossl_raise(i64 noundef %16, ptr noundef @.str) #16
  unreachable

17:                                               ; preds = %10
  br label %18

18:                                               ; preds = %17
  br label %19

19:                                               ; preds = %18
  %20 = load i64, ptr %5, align 8, !tbaa !6
  %21 = call ptr @GetPrivPKeyPtr(i64 noundef %20)
  store ptr %21, ptr %8, align 8, !tbaa !33
  %22 = load i64, ptr %6, align 8, !tbaa !6
  %23 = call zeroext i1 @RB_NIL_P(i64 noundef %22) #17
  br i1 %23, label %24, label %25

24:                                               ; preds = %19
  store ptr null, ptr %9, align 8, !tbaa !35
  br label %28

25:                                               ; preds = %19
  %26 = load i64, ptr %6, align 8, !tbaa !6
  %27 = call ptr @ossl_evp_get_digestbyname(i64 noundef %26)
  store ptr %27, ptr %9, align 8, !tbaa !35
  br label %28

28:                                               ; preds = %25, %24
  %29 = load ptr, ptr %7, align 8, !tbaa !10
  %30 = load ptr, ptr %8, align 8, !tbaa !33
  %31 = load ptr, ptr %9, align 8, !tbaa !35
  %32 = call i32 @X509_REQ_sign(ptr noundef %29, ptr noundef %30, ptr noundef %31)
  %33 = icmp ne i32 %32, 0
  br i1 %33, label %36, label %34

34:                                               ; preds = %28
  %35 = load i64, ptr @eX509ReqError, align 8, !tbaa !6
  call void (i64, ptr, ...) @ossl_raise(i64 noundef %35, ptr noundef null) #16
  unreachable

36:                                               ; preds = %28
  %37 = load i64, ptr %4, align 8, !tbaa !6
  call void @llvm.lifetime.end.p0(i64 8, ptr %9) #15
  call void @llvm.lifetime.end.p0(i64 8, ptr %8) #15
  call void @llvm.lifetime.end.p0(i64 8, ptr %7) #15
  ret i64 %37
}