; Function Attrs: nounwind sspstrong uwtable
define internal noundef i64 @ossl_x509req_sign(i64 noundef returned %0, i64 noundef %1, i64 noundef %2) #0 {
  %4 = tail call ptr @rb_check_typeddata(i64 noundef %0, ptr noundef nonnull @ossl_x509req_type) #5
  %.not = icmp eq ptr %4, null
  br i1 %.not, label %5, label %7

5:                                                ; preds = %3
  %6 = load i64, ptr @rb_eRuntimeError, align 8, !tbaa !6
  tail call void (i64, ptr, ...) @ossl_raise(i64 noundef %6, ptr noundef nonnull @.str) #6
  unreachable

7:                                                ; preds = %3
  %8 = tail call ptr @GetPrivPKeyPtr(i64 noundef %1) #5
  %9 = icmp eq i64 %2, 4
  br i1 %9, label %12, label %10

10:                                               ; preds = %7
  %11 = tail call ptr @ossl_evp_get_digestbyname(i64 noundef %2) #5
  br label %12

12:                                               ; preds = %7, %10
  %.0 = phi ptr [ %11, %10 ], [ null, %7 ]
  %13 = tail call i32 @X509_REQ_sign(ptr noundef nonnull %4, ptr noundef %8, ptr noundef %.0) #5
  %.not9 = icmp eq i32 %13, 0
  br i1 %.not9, label %14, label %16

14:                                               ; preds = %12
  %15 = load i64, ptr @eX509ReqError, align 8, !tbaa !6
  tail call void (i64, ptr, ...) @ossl_raise(i64 noundef %15, ptr noundef null) #6
  unreachable

16:                                               ; preds = %12
  ret i64 %0
}